target datalayout = "e-m:e-p270:32:32-p271:32:32-p272:64:64-i64:64-i128:128-f80:128-n8:16:32:64-S128"
target triple = "x86_64-pc-linux-gnu"

%struct.sp_int = type { i16, i16, [129 x i64] }

; Function Attrs: nounwind uwtable
define i32 @sp_count_bits(ptr noundef %0) #0 {
  %2 = alloca ptr, align 8
  %3 = alloca i32, align 4
  %4 = alloca i64, align 8
  store ptr %0, ptr %2, align 8, !tbaa !3
  call void @llvm.lifetime.start.p0(i64 4, ptr %3) #8
  store i32 -1, ptr %3, align 4, !tbaa !8
  %5 = load ptr, ptr %2, align 8, !tbaa !3
  %6 = icmp ne ptr %5, null
  br i1 %6, label %7, label %36

7:                                                ; preds = %1
  %8 = load ptr, ptr %2, align 8, !tbaa !3
  %9 = getelementptr inbounds nuw %struct.sp_int, ptr %8, i32 0, i32 0
  %10 = load i16, ptr %9, align 8, !tbaa !15
  %11 = zext i16 %10 to i32
  %12 = icmp sgt i32 %11, 0
  br i1 %12, label %13, label %36

13:                                               ; preds = %7
  %14 = load ptr, ptr %2, align 8, !tbaa !3
  %15 = getelementptr inbounds nuw %struct.sp_int, ptr %14, i32 0, i32 0
  %16 = load i16, ptr %15, align 8, !tbaa !15
  %17 = zext i16 %16 to i32
  %18 = sub nsw i32 %17, 1
  store i32 %18, ptr %3, align 4, !tbaa !8
  br label %19

19:                                               ; preds = %32, %13
  %20 = load i32, ptr %3, align 4, !tbaa !8
  %21 = icmp sge i32 %20, 0
  br i1 %21, label %22, label %30

22:                                               ; preds = %19
  %23 = load ptr, ptr %2, align 8, !tbaa !3
  %24 = getelementptr inbounds nuw %struct.sp_int, ptr %23, i32 0, i32 2
  %25 = load i32, ptr %3, align 4, !tbaa !8
  %26 = sext i32 %25 to i64
  %27 = getelementptr inbounds [129 x i64], ptr %24, i64 0, i64 %26
  %28 = load i64, ptr %27, align 8, !tbaa !16
  %29 = icmp eq i64 %28, 0
  br label %30

30:                                               ; preds = %22, %19
  %31 = phi i1 [ false, %19 ], [ %29, %22 ]
  br i1 %31, label %32, label %35

32:                                               ; preds = %30
  %33 = load i32, ptr %3, align 4, !tbaa !8
  %34 = add nsw i32 %33, -1
  store i32 %34, ptr %3, align 4, !tbaa !8
  br label %19, !llvm.loop !37

35:                                               ; preds = %30
  br label %36

36:                                               ; preds = %35, %7, %1
  %37 = load i32, ptr %3, align 4, !tbaa !8
  %38 = icmp slt i32 %37, 0
  br i1 %38, label %39, label %40

39:                                               ; preds = %36
  store i32 0, ptr %3, align 4, !tbaa !8
  br label %75

40:                                               ; preds = %36
  call void @llvm.lifetime.start.p0(i64 8, ptr %4) #8
  %41 = load ptr, ptr %2, align 8, !tbaa !3
  %42 = getelementptr inbounds nuw %struct.sp_int, ptr %41, i32 0, i32 2
  %43 = load i32, ptr %3, align 4, !tbaa !8
  %44 = sext i32 %43 to i64
  %45 = getelementptr inbounds [129 x i64], ptr %42, i64 0, i64 %44
  %46 = load i64, ptr %45, align 8, !tbaa !16
  store i64 %46, ptr %4, align 8, !tbaa !16
  %47 = load i32, ptr %3, align 4, !tbaa !8
  %48 = mul nsw i32 %47, 64
  store i32 %48, ptr %3, align 4, !tbaa !8
  %49 = load i64, ptr %4, align 8, !tbaa !16
  %50 = icmp ugt i64 %49, 4294967295
  br i1 %50, label %51, label %64

51:                                               ; preds = %40
  %52 = load i32, ptr %3, align 4, !tbaa !8
  %53 = add nsw i32 %52, 64
  store i32 %53, ptr %3, align 4, !tbaa !8
  br label %54

54:                                               ; preds = %58, %51
  %55 = load i64, ptr %4, align 8, !tbaa !16
  %56 = and i64 %55, -9223372036854775808
  %57 = icmp eq i64 %56, 0
  br i1 %57, label %58, label %63

58:                                               ; preds = %54
  %59 = load i32, ptr %3, align 4, !tbaa !8
  %60 = add nsw i32 %59, -1
  store i32 %60, ptr %3, align 4, !tbaa !8
  %61 = load i64, ptr %4, align 8, !tbaa !16
  %62 = shl i64 %61, 1
  store i64 %62, ptr %4, align 8, !tbaa !16
  br label %54, !llvm.loop !38

63:                                               ; preds = %54
  br label %74

64:                                               ; preds = %40
  br label %65

65:                                               ; preds = %68, %64
  %66 = load i64, ptr %4, align 8, !tbaa !16
  %67 = icmp ne i64 %66, 0
  br i1 %67, label %68, label %73

68:                                               ; preds = %65
  %69 = load i32, ptr %3, align 4, !tbaa !8
  %70 = add nsw i32 %69, 1
  store i32 %70, ptr %3, align 4, !tbaa !8
  %71 = load i64, ptr %4, align 8, !tbaa !16
  %72 = lshr i64 %71, 1
  store i64 %72, ptr %4, align 8, !tbaa !16
  br label %65, !llvm.loop !39

73:                                               ; preds = %65
  br label %74

74:                                               ; preds = %73, %63
  call void @llvm.lifetime.end.p0(i64 8, ptr %4) #8
  br label %75

75:                                               ; preds = %74, %39
  %76 = load i32, ptr %3, align 4, !tbaa !8
  call void @llvm.lifetime.end.p0(i64 4, ptr %3) #8
  ret i32 %76
}

; Function Attrs: nounwind uwtable
define i32 @sp_to_unsigned_bin_len(ptr noundef %0, ptr noundef %1, i32 noundef %2) #0 {
  %4 = alloca ptr, align 8
  %5 = alloca ptr, align 8
  %6 = alloca i32, align 4
  %7 = alloca i32, align 4
  %8 = alloca i32, align 4
  %9 = alloca i32, align 4
  %10 = alloca i32, align 4
  %11 = alloca i64, align 8
  store ptr %0, ptr %4, align 8, !tbaa !3
  store ptr %1, ptr %5, align 8, !tbaa !24
  store i32 %2, ptr %6, align 4, !tbaa !8
  call void @llvm.lifetime.start.p0(i64 4, ptr %7) #8
  store i32 0, ptr %7, align 4, !tbaa !8
  %12 = load ptr, ptr %4, align 8, !tbaa !3
  %13 = icmp eq ptr %12, null
  br i1 %13, label %20, label %14

14:                                               ; preds = %3
  %15 = load ptr, ptr %5, align 8, !tbaa !24
  %16 = icmp eq ptr %15, null
  br i1 %16, label %20, label %17

17:                                               ; preds = %14
  %18 = load i32, ptr %6, align 4, !tbaa !8
  %19 = icmp slt i32 %18, 0
  br i1 %19, label %20, label %21

20:                                               ; preds = %17, %14, %3
  store i32 -98, ptr %7, align 4, !tbaa !8
  br label %21

21:                                               ; preds = %20, %17
  %22 = load i32, ptr %7, align 4, !tbaa !8
  %23 = icmp eq i32 %22, 0
  br i1 %23, label %24, label %102

24:                                               ; preds = %21
  call void @llvm.lifetime.start.p0(i64 4, ptr %8) #8
  %25 = load i32, ptr %6, align 4, !tbaa !8
  %26 = sub nsw i32 %25, 1
  store i32 %26, ptr %8, align 4, !tbaa !8
  %27 = load ptr, ptr %4, align 8, !tbaa !3
  %28 = getelementptr inbounds nuw %struct.sp_int, ptr %27, i32 0, i32 0
  %29 = load i16, ptr %28, align 8, !tbaa !15
  %30 = zext i16 %29 to i32
  %31 = icmp eq i32 %30, 0
  br i1 %31, label %89, label %32

32:                                               ; preds = %24
  call void @llvm.lifetime.start.p0(i64 4, ptr %9) #8
  store i32 0, ptr %9, align 4, !tbaa !8
  br label %33

33:                                               ; preds = %85, %32
  %34 = load i32, ptr %8, align 4, !tbaa !8
  %35 = icmp sge i32 %34, 0
  br i1 %35, label %36, label %43

36:                                               ; preds = %33
  %37 = load i32, ptr %9, align 4, !tbaa !8
  %38 = load ptr, ptr %4, align 8, !tbaa !3
  %39 = getelementptr inbounds nuw %struct.sp_int, ptr %38, i32 0, i32 0
  %40 = load i16, ptr %39, align 8, !tbaa !15
  %41 = zext i16 %40 to i32
  %42 = icmp ult i32 %37, %41
  br label %43

43:                                               ; preds = %36, %33
  %44 = phi i1 [ false, %33 ], [ %42, %36 ]
  br i1 %44, label %45, label %88

45:                                               ; preds = %43
  call void @llvm.lifetime.start.p0(i64 4, ptr %10) #8
  call void @llvm.lifetime.start.p0(i64 8, ptr %11) #8
  %46 = load ptr, ptr %4, align 8, !tbaa !3
  %47 = getelementptr inbounds nuw %struct.sp_int, ptr %46, i32 0, i32 2
  %48 = load i32, ptr %9, align 4, !tbaa !8
  %49 = zext i32 %48 to i64
  %50 = getelementptr inbounds nuw [129 x i64], ptr %47, i64 0, i64 %49
  %51 = load i64, ptr %50, align 8, !tbaa !16
  store i64 %51, ptr %11, align 8, !tbaa !16
  store i32 0, ptr %10, align 4, !tbaa !8
  br label %52

52:                                               ; preds = %81, %45
  %53 = load i32, ptr %10, align 4, !tbaa !8
  %54 = icmp slt i32 %53, 64
  br i1 %54, label %55, label %84

55:                                               ; preds = %52
  %56 = load i64, ptr %11, align 8, !tbaa !16
  %57 = trunc i64 %56 to i8
  %58 = load ptr, ptr %5, align 8, !tbaa !24
  %59 = load i32, ptr %8, align 4, !tbaa !8
  %60 = add nsw i32 %59, -1
  store i32 %60, ptr %8, align 4, !tbaa !8
  %61 = sext i32 %59 to i64
  %62 = getelementptr inbounds i8, ptr %58, i64 %61
  store i8 %57, ptr %62, align 1, !tbaa !26
  %63 = load i64, ptr %11, align 8, !tbaa !16
  %64 = lshr i64 %63, 8
  store i64 %64, ptr %11, align 8, !tbaa !16
  %65 = load i32, ptr %8, align 4, !tbaa !8
  %66 = icmp slt i32 %65, 0
  br i1 %66, label %67, label %80

67:                                               ; preds = %55
  %68 = load i32, ptr %9, align 4, !tbaa !8
  %69 = load ptr, ptr %4, align 8, !tbaa !3
  %70 = getelementptr inbounds nuw %struct.sp_int, ptr %69, i32 0, i32 0
  %71 = load i16, ptr %70, align 8, !tbaa !15
  %72 = zext i16 %71 to i32
  %73 = sub i32 %72, 1
  %74 = icmp ult i32 %68, %73
  br i1 %74, label %78, label %75

75:                                               ; preds = %67
  %76 = load i64, ptr %11, align 8, !tbaa !16
  %77 = icmp ugt i64 %76, 0
  br i1 %77, label %78, label %79

78:                                               ; preds = %75, %67
  store i32 -98, ptr %7, align 4, !tbaa !8
  br label %79

79:                                               ; preds = %78, %75
  br label %84

80:                                               ; preds = %55
  br label %81

81:                                               ; preds = %80
  %82 = load i32, ptr %10, align 4, !tbaa !8
  %83 = add nsw i32 %82, 8
  store i32 %83, ptr %10, align 4, !tbaa !8
  br label %52, !llvm.loop !124

84:                                               ; preds = %79, %52
  call void @llvm.lifetime.end.p0(i64 8, ptr %11) #8
  call void @llvm.lifetime.end.p0(i64 4, ptr %10) #8
  br label %85

85:                                               ; preds = %84
  %86 = load i32, ptr %9, align 4, !tbaa !8
  %87 = add i32 %86, 1
  store i32 %87, ptr %9, align 4, !tbaa !8
  br label %33, !llvm.loop !125

88:                                               ; preds = %43
  call void @llvm.lifetime.end.p0(i64 4, ptr %9) #8
  br label %89

89:                                               ; preds = %88, %24
  br label %90

90:                                               ; preds = %98, %89
  %91 = load i32, ptr %8, align 4, !tbaa !8
  %92 = icmp sge i32 %91, 0
  br i1 %92, label %93, label %101

93:                                               ; preds = %90
  %94 = load ptr, ptr %5, align 8, !tbaa !24
  %95 = load i32, ptr %8, align 4, !tbaa !8
  %96 = sext i32 %95 to i64
  %97 = getelementptr inbounds i8, ptr %94, i64 %96
  store i8 0, ptr %97, align 1, !tbaa !26
  br label %98

98:                                               ; preds = %93
  %99 = load i32, ptr %8, align 4, !tbaa !8
  %100 = add nsw i32 %99, -1
  store i32 %100, ptr %8, align 4, !tbaa !8
  br label %90, !llvm.loop !126

101:                                              ; preds = %90
  call void @llvm.lifetime.end.p0(i64 4, ptr %8) #8
  br label %102

102:                                              ; preds = %101, %21
  %103 = load i32, ptr %7, align 4, !tbaa !8
  call void @llvm.lifetime.end.p0(i64 4, ptr %7) #8
  ret i32 %103
}

; Function Attrs: nounwind uwtable
define i32 @sp_unsigned_bin_size(ptr noundef %0) #0 {
  %2 = alloca ptr, align 8
  %3 = alloca i32, align 4
  store ptr %0, ptr %2, align 8, !tbaa !3
  call void @llvm.lifetime.start.p0(i64 4, ptr %3) #8
  store i32 0, ptr %3, align 4, !tbaa !8
  %4 = load ptr, ptr %2, align 8, !tbaa !3
  %5 = icmp ne ptr %4, null
  br i1 %5, label %6, label %11

6:                                                ; preds = %1
  %7 = load ptr, ptr %2, align 8, !tbaa !3
  %8 = call i32 @sp_count_bits(ptr noundef %7)
  %9 = add nsw i32 %8, 7
  %10 = sdiv i32 %9, 8
  store i32 %10, ptr %3, align 4, !tbaa !8
  br label %11

11:                                               ; preds = %6, %1
  %12 = load i32, ptr %3, align 4, !tbaa !8
  call void @llvm.lifetime.end.p0(i64 4, ptr %3) #8
  ret i32 %12
}

; Function Attrs: nounwind uwtable
define i32 @sp_to_unsigned_bin(ptr noundef %0, ptr noundef %1) #0 {
  %3 = alloca ptr, align 8
  %4 = alloca ptr, align 8
  store ptr %0, ptr %3, align 8, !tbaa !3
  store ptr %1, ptr %4, align 8, !tbaa !24
  %5 = load ptr, ptr %3, align 8, !tbaa !3
  %6 = load ptr, ptr %4, align 8, !tbaa !24
  %7 = load ptr, ptr %3, align 8, !tbaa !3
  %8 = call i32 @sp_unsigned_bin_size(ptr noundef %7)
  %9 = call i32 @sp_to_unsigned_bin_len(ptr noundef %5, ptr noundef %6, i32 noundef %8)
  ret i32 %9
}