; Function Attrs: nofree norecurse nosync nounwind memory(argmem: readwrite) uwtable
define range(i32 -98, 1) i32 @sp_to_unsigned_bin(ptr noundef readonly captures(address_is_null) %0, ptr noundef writeonly captures(address_is_null) %1) local_unnamed_addr #8 {
  %.not.i = icmp eq ptr %0, null
  br i1 %.not.i, label %sp_to_unsigned_bin_len.exit, label %3

3:                                                ; preds = %2
  %4 = load i16, ptr %0, align 8, !tbaa !12
  %.not25.i.i = icmp eq i16 %4, 0
  br i1 %.not25.i.i, label %sp_unsigned_bin_size.exit, label %5

5:                                                ; preds = %3
  %6 = getelementptr inbounds nuw i8, ptr %0, i64 8
  %7 = zext i16 %4 to i64
  br label %8

8:                                                ; preds = %10, %5
  %indvars.iv.i.i = phi i64 [ %indvars.iv.next.i.i, %10 ], [ %7, %5 ]
  %9 = icmp sgt i64 %indvars.iv.i.i, 0
  br i1 %9, label %10, label %sp_unsigned_bin_size.exit

10:                                               ; preds = %8
  %indvars.iv.next.i.i = add nsw i64 %indvars.iv.i.i, -1
  %11 = getelementptr inbounds nuw [129 x i64], ptr %6, i64 0, i64 %indvars.iv.next.i.i
  %12 = load i64, ptr %11, align 8, !tbaa !8
  %13 = icmp eq i64 %12, 0
  br i1 %13, label %8, label %.critedge.i.i, !llvm.loop !22

.critedge.i.i:                                    ; preds = %10
  %14 = trunc nsw i64 %indvars.iv.next.i.i to i32
  %15 = and i64 %indvars.iv.next.i.i, 4294967295
  %16 = getelementptr inbounds nuw [129 x i64], ptr %6, i64 0, i64 %15
  %17 = load i64, ptr %16, align 8, !tbaa !8
  %18 = shl nuw nsw i32 %14, 6
  %19 = icmp ugt i64 %17, 4294967295
  br i1 %19, label %23, label %.preheader.i.i

.preheader.i.i:                                   ; preds = %.critedge.i.i
  %.not2631.i.i = icmp eq i64 %17, 0
  br i1 %.not2631.i.i, label %sp_unsigned_bin_size.exit, label %.lr.ph.preheader.i.i

.lr.ph.preheader.i.i:                             ; preds = %.preheader.i.i
  %20 = tail call range(i64 32, 65) i64 @llvm.ctlz.i64(i64 %17, i1 true)
  %21 = trunc nuw nsw i64 %20 to i32
  %reass.sub.i.i = add nuw i32 %18, 64
  %22 = sub nuw i32 %reass.sub.i.i, %21
  br label %sp_unsigned_bin_size.exit

23:                                               ; preds = %.critedge.i.i
  %24 = add nuw nsw i32 %18, 64
  %25 = icmp sgt i64 %17, -1
  br i1 %25, label %.lr.ph36.i.i, label %sp_unsigned_bin_size.exit

.lr.ph36.i.i:                                     ; preds = %23, %.lr.ph36.i.i
  %.035.i.i = phi i64 [ %27, %.lr.ph36.i.i ], [ %17, %23 ]
  %.334.i.i = phi i32 [ %26, %.lr.ph36.i.i ], [ %24, %23 ]
  %26 = add nsw i32 %.334.i.i, -1
  %27 = shl nuw i64 %.035.i.i, 1
  %28 = icmp sgt i64 %27, -1
  br i1 %28, label %.lr.ph36.i.i, label %sp_unsigned_bin_size.exit, !llvm.loop !23

sp_unsigned_bin_size.exit:                        ; preds = %8, %.lr.ph36.i.i, %3, %.preheader.i.i, %.lr.ph.preheader.i.i, %23
  %.2.i.i = phi i32 [ 0, %3 ], [ %24, %23 ], [ %18, %.preheader.i.i ], [ %22, %.lr.ph.preheader.i.i ], [ %26, %.lr.ph36.i.i ], [ 0, %8 ]
  %29 = icmp ne ptr %1, null
  %30 = icmp sgt i32 %.2.i.i, -15
  %or.cond3.not.i = and i1 %29, %30
  br i1 %or.cond3.not.i, label %31, label %sp_to_unsigned_bin_len.exit

31:                                               ; preds = %sp_unsigned_bin_size.exit
  %32 = add nsw i32 %.2.i.i, 7
  %33 = sdiv i32 %32, 8
  %34 = icmp ne i16 %4, 0
  %35 = add nsw i32 %.2.i.i, -1
  %36 = icmp ult i32 %35, -15
  %or.cond.i = and i1 %36, %34
  br i1 %or.cond.i, label %.lr.ph.i, label %.critedge.i

.lr.ph.i:                                         ; preds = %31
  %37 = add nsw i32 %33, -1
  %38 = getelementptr inbounds nuw i8, ptr %0, i64 8
  br label %39

39:                                               ; preds = %.loopexit45.i, %.lr.ph.i
  %indvars.iv62.i = phi i64 [ 0, %.lr.ph.i ], [ %indvars.iv.next63.i, %.loopexit45.i ]
  %.152.i = phi i32 [ %37, %.lr.ph.i ], [ %indvars.i, %.loopexit45.i ]
  %40 = load i16, ptr %0, align 8, !tbaa !12
  %41 = zext i16 %40 to i64
  %42 = icmp samesign ult i64 %indvars.iv62.i, %41
  br i1 %42, label %43, label %.lr.ph59.preheader.i.loopexit

43:                                               ; preds = %39
  %44 = getelementptr inbounds nuw [129 x i64], ptr %38, i64 0, i64 %indvars.iv62.i
  %45 = load i64, ptr %44, align 8, !tbaa !8
  %46 = zext nneg i32 %.152.i to i64
  br label %47

47:                                               ; preds = %58, %43
  %indvars.iv.i = phi i64 [ %46, %43 ], [ %indvars.iv.next.i, %58 ]
  %.050.i = phi i64 [ %45, %43 ], [ %59, %58 ]
  %.03149.i = phi i32 [ 0, %43 ], [ %60, %58 ]
  %48 = trunc i64 %.050.i to i8
  %49 = getelementptr inbounds nuw i8, ptr %1, i64 %indvars.iv.i
  store i8 %48, ptr %49, align 1, !tbaa !13
  %50 = trunc nuw i64 %indvars.iv.i to i32
  %51 = icmp slt i32 %50, 1
  br i1 %51, label %.loopexit45.thread.i, label %58

.loopexit45.thread.i:                             ; preds = %47
  %52 = load i16, ptr %0, align 8, !tbaa !12
  %53 = zext i16 %52 to i64
  %54 = add nuw nsw i64 %53, 4294967295
  %55 = and i64 %54, 4294967295
  %56 = icmp samesign ult i64 %indvars.iv62.i, %55
  %57 = icmp ugt i64 %.050.i, 255
  %or.cond5.i = select i1 %56, i1 true, i1 %57
  %spec.select44.i = select i1 %or.cond5.i, i32 -98, i32 0
  br label %sp_to_unsigned_bin_len.exit

58:                                               ; preds = %47
  %59 = lshr i64 %.050.i, 8
  %indvars.iv.next.i = add nsw i64 %indvars.iv.i, -1
  %60 = add nuw nsw i32 %.03149.i, 8
  %61 = icmp samesign ult i32 %.03149.i, 56
  br i1 %61, label %47, label %.loopexit45.i, !llvm.loop !110

.loopexit45.i:                                    ; preds = %58
  %indvars.i = trunc i64 %indvars.iv.next.i to i32
  %indvars.iv.next63.i = add nuw nsw i64 %indvars.iv62.i, 1
  %62 = icmp sgt i32 %indvars.i, -1
  br i1 %62, label %39, label %sp_to_unsigned_bin_len.exit, !llvm.loop !111

.critedge.i:                                      ; preds = %31
  %.off = add i32 %.2.i.i, 14
  %.not = icmp ult i32 %.off, 15
  br i1 %.not, label %sp_to_unsigned_bin_len.exit, label %.lr.ph59.preheader.i

.lr.ph59.preheader.i.loopexit:                    ; preds = %39
  %63 = add nuw i32 %.152.i, 1
  br label %.lr.ph59.preheader.i

.lr.ph59.preheader.i:                             ; preds = %.lr.ph59.preheader.i.loopexit, %.critedge.i
  %.03379.i = phi i32 [ %33, %.critedge.i ], [ %63, %.lr.ph59.preheader.i.loopexit ]
  %64 = zext i32 %.03379.i to i64
  tail call void @llvm.memset.p0.i64(ptr noundef nonnull align 1 dereferenceable(1) %1, i8 0, i64 %64, i1 false), !tbaa !13
  br label %sp_to_unsigned_bin_len.exit

sp_to_unsigned_bin_len.exit:                      ; preds = %.loopexit45.i, %2, %sp_unsigned_bin_size.exit, %.loopexit45.thread.i, %.critedge.i, %.lr.ph59.preheader.i
  %.135.i = phi i32 [ -98, %sp_unsigned_bin_size.exit ], [ 0, %.critedge.i ], [ 0, %.lr.ph59.preheader.i ], [ %spec.select44.i, %.loopexit45.thread.i ], [ -98, %2 ], [ 0, %.loopexit45.i ]
  ret i32 %.135.i
}